; Function Attrs: mustprogress nounwind uwtable
define internal fastcc void @_ZNSt6vectorIN12_GLOBAL__N_14StepESaIS1_EED2Ev(ptr noundef nonnull readonly align 8 captures(none) dereferenceable(24) %0) unnamed_addr #8 align 2 personality ptr @__gxx_personality_v0 {
  %2 = load ptr, ptr %0, align 8, !tbaa !113
  %3 = getelementptr inbounds nuw i8, ptr %0, i64 8
  %4 = load ptr, ptr %3, align 8, !tbaa !107
  %.not4.i.i.i = icmp eq ptr %2, %4
  br i1 %.not4.i.i.i, label %_ZSt8_DestroyIPN12_GLOBAL__N_14StepES1_EvT_S3_RSaIT0_E.exit, label %.lr.ph.i.i.i

.lr.ph.i.i.i:                                     ; preds = %1, %_ZSt8_DestroyIN12_GLOBAL__N_14StepEEvPT_.exit.i.i.i
  %.05.i.i.i = phi ptr [ %9, %_ZSt8_DestroyIN12_GLOBAL__N_14StepEEvPT_.exit.i.i.i ], [ %2, %1 ]
  %.0.val.i.i.i = load ptr, ptr %.05.i.i.i, align 8, !tbaa !109
  %5 = invoke ptr @proj_destroy(ptr noundef %.0.val.i.i.i)
          to label %_ZSt8_DestroyIN12_GLOBAL__N_14StepEEvPT_.exit.i.i.i unwind label %6

6:                                                ; preds = %.lr.ph.i.i.i
  %7 = landingpad { ptr, i32 }
          catch ptr null
  %8 = extractvalue { ptr, i32 } %7, 0
  tail call void @__clang_call_terminate(ptr %8) #25
  unreachable

_ZSt8_DestroyIN12_GLOBAL__N_14StepEEvPT_.exit.i.i.i: ; preds = %.lr.ph.i.i.i
  %9 = getelementptr inbounds nuw i8, ptr %.05.i.i.i, i64 16
  %.not.i.i.i = icmp eq ptr %9, %4
  br i1 %.not.i.i.i, label %_ZSt8_DestroyIPN12_GLOBAL__N_14StepES1_EvT_S3_RSaIT0_E.exitthread-pre-split, label %.lr.ph.i.i.i, !llvm.loop !118

_ZSt8_DestroyIPN12_GLOBAL__N_14StepES1_EvT_S3_RSaIT0_E.exitthread-pre-split: ; preds = %_ZSt8_DestroyIN12_GLOBAL__N_14StepEEvPT_.exit.i.i.i
  %.val.pr = load ptr, ptr %0, align 8, !tbaa !113
  br label %_ZSt8_DestroyIPN12_GLOBAL__N_14StepES1_EvT_S3_RSaIT0_E.exit

_ZSt8_DestroyIPN12_GLOBAL__N_14StepES1_EvT_S3_RSaIT0_E.exit: ; preds = %_ZSt8_DestroyIPN12_GLOBAL__N_14StepES1_EvT_S3_RSaIT0_E.exitthread-pre-split, %1
  %.val = phi ptr [ %.val.pr, %_ZSt8_DestroyIPN12_GLOBAL__N_14StepES1_EvT_S3_RSaIT0_E.exitthread-pre-split ], [ %2, %1 ]
  %.not.i.i = icmp eq ptr %.val, null
  br i1 %.not.i.i, label %_ZNSt12_Vector_baseIN12_GLOBAL__N_14StepESaIS1_EED2Ev.exit, label %10

10:                                               ; preds = %_ZSt8_DestroyIPN12_GLOBAL__N_14StepES1_EvT_S3_RSaIT0_E.exit
  %11 = getelementptr inbounds nuw i8, ptr %0, i64 16
  %.val1 = load ptr, ptr %11, align 8, !tbaa !108
  %12 = ptrtoint ptr %.val1 to i64
  %13 = ptrtoint ptr %.val to i64
  %14 = sub i64 %12, %13
  tail call void @_ZdlPvm(ptr noundef nonnull %.val, i64 noundef %14) #20
  br label %_ZNSt12_Vector_baseIN12_GLOBAL__N_14StepESaIS1_EED2Ev.exit

_ZNSt12_Vector_baseIN12_GLOBAL__N_14StepESaIS1_EED2Ev.exit: ; preds = %_ZSt8_DestroyIPN12_GLOBAL__N_14StepES1_EvT_S3_RSaIT0_E.exit, %10
  ret void
}